target datalayout = "e-m:e-p270:32:32-p271:32:32-p272:64:64-i64:64-i128:128-f80:128-n8:16:32:64-S128"
target triple = "x86_64-pc-linux-gnu"

%struct.jpeg_compress_struct = type { ptr, ptr, ptr, ptr, i32, i32, ptr, i32, i32, i32, i32, double, i32, i32, i32, ptr, [4 x ptr], [4 x ptr], [4 x ptr], [16 x i8], [16 x i8], [16 x i8], i32, ptr, i32, i32, i32, i32, i32, i32, i32, i32, i32, i8, i8, i8, i16, i16, i32, i32, i32, i32, i32, i32, i32, [4 x ptr], i32, i32, i32, [10 x i32], i32, i32, i32, i32, ptr, ptr, ptr, ptr, ptr, ptr, ptr, ptr, ptr, ptr, i32 }
%struct.jpeg_error_mgr = type { ptr, ptr, ptr, ptr, ptr, i32, %union.anon, i32, i64, ptr, i32, ptr, i32, i32 }
%union.anon = type { [8 x i32], [48 x i8] }
%struct.my_prep_controller = type { %struct.jpeg_c_prep_controller, [10 x ptr], i32, i32, i32, i32 }
%struct.jpeg_c_prep_controller = type { ptr, ptr }

; Function Attrs: nounwind uwtable
define internal void @start_pass_prep(ptr noundef %0, i32 noundef %1) #0 {
  %3 = alloca ptr, align 8
  %4 = alloca i32, align 4
  %5 = alloca ptr, align 8
  store ptr %0, ptr %3, align 8
  store i32 %1, ptr %4, align 4
  %6 = load ptr, ptr %3, align 8
  %7 = getelementptr inbounds %struct.jpeg_compress_struct, ptr %6, i32 0, i32 56
  %8 = load ptr, ptr %7, align 8
  store ptr %8, ptr %5, align 8
  %9 = load i32, ptr %4, align 4
  %10 = icmp ne i32 %9, 0
  br i1 %10, label %11, label %22

11:                                               ; preds = %2
  %12 = load ptr, ptr %3, align 8
  %13 = getelementptr inbounds %struct.jpeg_compress_struct, ptr %12, i32 0, i32 0
  %14 = load ptr, ptr %13, align 8
  %15 = getelementptr inbounds %struct.jpeg_error_mgr, ptr %14, i32 0, i32 5
  store i32 4, ptr %15, align 8
  %16 = load ptr, ptr %3, align 8
  %17 = getelementptr inbounds %struct.jpeg_compress_struct, ptr %16, i32 0, i32 0
  %18 = load ptr, ptr %17, align 8
  %19 = getelementptr inbounds %struct.jpeg_error_mgr, ptr %18, i32 0, i32 0
  %20 = load ptr, ptr %19, align 8
  %21 = load ptr, ptr %3, align 8
  call void %20(ptr noundef %21)
  br label %22

22:                                               ; preds = %11, %2
  %23 = load ptr, ptr %3, align 8
  %24 = getelementptr inbounds %struct.jpeg_compress_struct, ptr %23, i32 0, i32 8
  %25 = load i32, ptr %24, align 4
  %26 = load ptr, ptr %5, align 8
  %27 = getelementptr inbounds %struct.my_prep_controller, ptr %26, i32 0, i32 2
  store i32 %25, ptr %27, align 8
  %28 = load ptr, ptr %5, align 8
  %29 = getelementptr inbounds %struct.my_prep_controller, ptr %28, i32 0, i32 3
  store i32 0, ptr %29, align 4
  %30 = load ptr, ptr %5, align 8
  %31 = getelementptr inbounds %struct.my_prep_controller, ptr %30, i32 0, i32 4
  store i32 0, ptr %31, align 8
  %32 = load ptr, ptr %3, align 8
  %33 = getelementptr inbounds %struct.jpeg_compress_struct, ptr %32, i32 0, i32 42
  %34 = load i32, ptr %33, align 4
  %35 = mul nsw i32 2, %34
  %36 = load ptr, ptr %5, align 8
  %37 = getelementptr inbounds %struct.my_prep_controller, ptr %36, i32 0, i32 5
  store i32 %35, ptr %37, align 4
  ret void
}