; Function Attrs: nounwind uwtable
define internal void @start_pass_prep(ptr noundef %0, i32 noundef %1) #0 {
  %3 = getelementptr inbounds i8, ptr %0, i64 448
  %4 = load ptr, ptr %3, align 8
  %.not = icmp eq i32 %1, 0
  br i1 %.not, label %10, label %5

5:                                                ; preds = %2
  %6 = load ptr, ptr %0, align 8
  %7 = getelementptr inbounds i8, ptr %6, i64 40
  store i32 4, ptr %7, align 8
  %8 = load ptr, ptr %0, align 8
  %9 = load ptr, ptr %8, align 8
  tail call void %9(ptr noundef nonnull %0) #4
  br label %10

10:                                               ; preds = %5, %2
  %11 = getelementptr inbounds i8, ptr %0, i64 52
  %12 = load i32, ptr %11, align 4
  %13 = getelementptr inbounds i8, ptr %4, i64 96
  store i32 %12, ptr %13, align 8
  %14 = getelementptr inbounds i8, ptr %4, i64 100
  store i32 0, ptr %14, align 4
  %15 = getelementptr inbounds i8, ptr %4, i64 104
  store i32 0, ptr %15, align 8
  %16 = getelementptr inbounds i8, ptr %0, i64 316
  %17 = load i32, ptr %16, align 4
  %18 = shl nsw i32 %17, 1
  %19 = getelementptr inbounds i8, ptr %4, i64 108
  store i32 %18, ptr %19, align 4
  ret void
}